; ModuleID = 'bench/openusd/original/computeCmdsDesc.cpp.ll'
source_filename = "bench/openusd/original/computeCmdsDesc.cpp.ll"
target datalayout = "e-m:e-p270:32:32-p271:32:32-p272:64:64-i64:64-i128:128-f80:128-n8:16:32:64-S128"
target triple = "x86_64-pc-linux-gnu"

@_ZN32pxrInternal_v0_24__pxrReserved__18HgiComputeCmdsDescC1Ev = unnamed_addr alias void (ptr), ptr @_ZN32pxrInternal_v0_24__pxrReserved__18HgiComputeCmdsDescC2Ev

; Function Attrs: mustprogress nofree norecurse nosync nounwind willreturn memory(argmem: write) uwtable
define void @_ZN32pxrInternal_v0_24__pxrReserved__18HgiComputeCmdsDescC2Ev(ptr nocapture noundef nonnull writeonly align 4 dereferenceable(4) %0) unnamed_addr #0 align 2 {
  store i32 0, ptr %0, align 4
  ret void
}

; Function Attrs: mustprogress nofree norecurse nosync nounwind willreturn memory(argmem: read) uwtable
define noundef zeroext i1 @_ZN32pxrInternal_v0_24__pxrReserved__eqERKNS_18HgiComputeCmdsDescES2_(ptr nocapture noundef nonnull readonly align 4 dereferenceable(4) %0, ptr nocapture noundef nonnull readonly align 4 dereferenceable(4) %1) local_unnamed_addr #1 {
  %3 = load i32, ptr %0, align 4
  %4 = load i32, ptr %1, align 4
  %5 = icmp eq i32 %3, %4
  ret i1 %5
}

; Function Attrs: mustprogress nofree norecurse nosync nounwind willreturn memory(argmem: read) uwtable
define noundef zeroext i1 @_ZN32pxrInternal_v0_24__pxrReserved__neERKNS_18HgiComputeCmdsDescES2_(ptr nocapture noundef nonnull readonly align 4 dereferenceable(4) %0, ptr nocapture noundef nonnull readonly align 4 dereferenceable(4) %1) local_unnamed_addr #1 {
  %3 = load i32, ptr %0, align 4
  %4 = load i32, ptr %1, align 4
  %5 = icmp ne i32 %3, %4
  ret i1 %5
}


!llvm.module.flags = !{!0, !1, !2, !3}

!0 = !{i32 1, !"wchar_size", i32 4}
!1 = !{i32 8, !"PIC Level", i32 2}
!2 = !{i32 7, !"uwtable", i32 2}
!3 = !{i32 7, !"frame-pointer", i32 2}
